target datalayout = "e-m:e-p270:32:32-p271:32:32-p272:64:64-i64:64-i128:128-f80:128-n8:16:32:64-S128"
target triple = "x86_64-pc-linux-gnu"

%struct.AVFilterContext = type { ptr, ptr, ptr, ptr, ptr, i32, ptr, ptr, i32, ptr, ptr, i32, i32, ptr, ptr, ptr, ptr, i32, ptr, i32, i32 }
%struct.FFTFILTContext = type { ptr, i32, i32, i32, i32, [4 x i32], [4 x i32], [32 x [4 x ptr]], [32 x [4 x ptr]], [32 x [4 x ptr]], [32 x [4 x ptr]], ptr, ptr, ptr, ptr, [4 x i32], [4 x i32], [4 x i64], [4 x i64], [4 x i64], [4 x i64], [4 x ptr], [4 x ptr], [4 x ptr], [4 x ptr], [4 x i32], [4 x ptr], [4 x ptr], [4 x ptr], ptr, ptr }

; Function Attrs: nounwind uwtable
define internal i32 @copy_horizontal(ptr noundef %0, ptr noundef %1, i32 noundef %2, i32 noundef %3) #1 {
  %5 = alloca ptr, align 8
  %6 = alloca ptr, align 8
  %7 = alloca i32, align 4
  %8 = alloca i32, align 4
  %9 = alloca ptr, align 8
  %10 = alloca i32, align 4
  %11 = alloca i32, align 4
  %12 = alloca i32, align 4
  %13 = alloca i32, align 4
  %14 = alloca i32, align 4
  %15 = alloca i32, align 4
  %16 = alloca i32, align 4
  %17 = alloca i32, align 4
  %18 = alloca ptr, align 8
  %19 = alloca ptr, align 8
  %20 = alloca i32, align 4
  %21 = alloca i32, align 4
  store ptr %0, ptr %5, align 8, !tbaa !4
  store ptr %1, ptr %6, align 8, !tbaa !26
  store i32 %2, ptr %7, align 4, !tbaa !24
  store i32 %3, ptr %8, align 4, !tbaa !24
  call void @llvm.lifetime.start.p0(i64 8, ptr %9) #10
  %22 = load ptr, ptr %5, align 8, !tbaa !4
  %23 = getelementptr inbounds nuw %struct.AVFilterContext, ptr %22, i32 0, i32 9
  %24 = load ptr, ptr %23, align 8, !tbaa !9
  store ptr %24, ptr %9, align 8, !tbaa !22
  call void @llvm.lifetime.start.p0(i64 4, ptr %10) #10
  store i32 0, ptr %10, align 4, !tbaa !24
  br label %25

25:                                               ; preds = %121, %4
  %26 = load i32, ptr %10, align 4, !tbaa !24
  %27 = load ptr, ptr %9, align 8, !tbaa !22
  %28 = getelementptr inbounds nuw %struct.FFTFILTContext, ptr %27, i32 0, i32 3
  %29 = load i32, ptr %28, align 8, !tbaa !51
  %30 = icmp slt i32 %26, %29
  br i1 %30, label %32, label %31

31:                                               ; preds = %25
  store i32 2, ptr %11, align 4
  call void @llvm.lifetime.end.p0(i64 4, ptr %10) #10
  br label %124

32:                                               ; preds = %25
  call void @llvm.lifetime.start.p0(i64 4, ptr %12) #10
  %33 = load ptr, ptr %9, align 8, !tbaa !22
  %34 = getelementptr inbounds nuw %struct.FFTFILTContext, ptr %33, i32 0, i32 19
  %35 = load i32, ptr %10, align 4, !tbaa !24
  %36 = sext i32 %35 to i64
  %37 = getelementptr inbounds [4 x i64], ptr %34, i64 0, i64 %36
  %38 = load i64, ptr %37, align 8, !tbaa !54
  %39 = trunc i64 %38 to i32
  store i32 %39, ptr %12, align 4, !tbaa !24
  call void @llvm.lifetime.start.p0(i64 4, ptr %13) #10
  %40 = load ptr, ptr %9, align 8, !tbaa !22
  %41 = getelementptr inbounds nuw %struct.FFTFILTContext, ptr %40, i32 0, i32 17
  %42 = load i32, ptr %10, align 4, !tbaa !24
  %43 = sext i32 %42 to i64
  %44 = getelementptr inbounds [4 x i64], ptr %41, i64 0, i64 %43
  %45 = load i64, ptr %44, align 8, !tbaa !54
  %46 = trunc i64 %45 to i32
  store i32 %46, ptr %13, align 4, !tbaa !24
  call void @llvm.lifetime.start.p0(i64 4, ptr %14) #10
  %47 = load ptr, ptr %9, align 8, !tbaa !22
  %48 = getelementptr inbounds nuw %struct.FFTFILTContext, ptr %47, i32 0, i32 18
  %49 = load i32, ptr %10, align 4, !tbaa !24
  %50 = sext i32 %49 to i64
  %51 = getelementptr inbounds [4 x i64], ptr %48, i64 0, i64 %50
  %52 = load i64, ptr %51, align 8, !tbaa !54
  %53 = trunc i64 %52 to i32
  store i32 %53, ptr %14, align 4, !tbaa !24
  call void @llvm.lifetime.start.p0(i64 4, ptr %15) #10
  %54 = load i32, ptr %12, align 4, !tbaa !24
  %55 = load i32, ptr %7, align 4, !tbaa !24
  %56 = mul nsw i32 %54, %55
  %57 = load i32, ptr %8, align 4, !tbaa !24
  %58 = sdiv i32 %56, %57
  store i32 %58, ptr %15, align 4, !tbaa !24
  call void @llvm.lifetime.start.p0(i64 4, ptr %16) #10
  %59 = load i32, ptr %12, align 4, !tbaa !24
  %60 = load i32, ptr %7, align 4, !tbaa !24
  %61 = add nsw i32 %60, 1
  %62 = mul nsw i32 %59, %61
  %63 = load i32, ptr %8, align 4, !tbaa !24
  %64 = sdiv i32 %62, %63
  store i32 %64, ptr %16, align 4, !tbaa !24
  call void @llvm.lifetime.start.p0(i64 4, ptr %17) #10
  %65 = load ptr, ptr %9, align 8, !tbaa !22
  %66 = getelementptr inbounds nuw %struct.FFTFILTContext, ptr %65, i32 0, i32 6
  %67 = load i32, ptr %10, align 4, !tbaa !24
  %68 = sext i32 %67 to i64
  %69 = getelementptr inbounds [4 x i32], ptr %66, i64 0, i64 %68
  %70 = load i32, ptr %69, align 4, !tbaa !24
  store i32 %70, ptr %17, align 4, !tbaa !24
  call void @llvm.lifetime.start.p0(i64 8, ptr %18) #10
  %71 = load ptr, ptr %9, align 8, !tbaa !22
  %72 = getelementptr inbounds nuw %struct.FFTFILTContext, ptr %71, i32 0, i32 21
  %73 = load i32, ptr %10, align 4, !tbaa !24
  %74 = sext i32 %73 to i64
  %75 = getelementptr inbounds [4 x ptr], ptr %72, i64 0, i64 %74
  %76 = load ptr, ptr %75, align 8, !tbaa !57
  store ptr %76, ptr %18, align 8, !tbaa !57
  call void @llvm.lifetime.start.p0(i64 8, ptr %19) #10
  %77 = load ptr, ptr %9, align 8, !tbaa !22
  %78 = getelementptr inbounds nuw %struct.FFTFILTContext, ptr %77, i32 0, i32 22
  %79 = load i32, ptr %10, align 4, !tbaa !24
  %80 = sext i32 %79 to i64
  %81 = getelementptr inbounds [4 x ptr], ptr %78, i64 0, i64 %80
  %82 = load ptr, ptr %81, align 8, !tbaa !57
  store ptr %82, ptr %19, align 8, !tbaa !57
  call void @llvm.lifetime.start.p0(i64 4, ptr %20) #10
  %83 = load i32, ptr %15, align 4, !tbaa !24
  store i32 %83, ptr %20, align 4, !tbaa !24
  br label %84

84:                                               ; preds = %117, %32
  %85 = load i32, ptr %20, align 4, !tbaa !24
  %86 = load i32, ptr %16, align 4, !tbaa !24
  %87 = icmp slt i32 %85, %86
  br i1 %87, label %89, label %88

88:                                               ; preds = %84
  store i32 5, ptr %11, align 4
  call void @llvm.lifetime.end.p0(i64 4, ptr %20) #10
  br label %120

89:                                               ; preds = %84
  call void @llvm.lifetime.start.p0(i64 4, ptr %21) #10
  store i32 0, ptr %21, align 4, !tbaa !24
  br label %90

90:                                               ; preds = %113, %89
  %91 = load i32, ptr %21, align 4, !tbaa !24
  %92 = load i32, ptr %17, align 4, !tbaa !24
  %93 = icmp slt i32 %91, %92
  br i1 %93, label %95, label %94

94:                                               ; preds = %90
  store i32 8, ptr %11, align 4
  call void @llvm.lifetime.end.p0(i64 4, ptr %21) #10
  br label %116

95:                                               ; preds = %90
  %96 = load ptr, ptr %19, align 8, !tbaa !57
  %97 = load i32, ptr %20, align 4, !tbaa !24
  %98 = load i32, ptr %14, align 4, !tbaa !24
  %99 = mul nsw i32 %97, %98
  %100 = load i32, ptr %21, align 4, !tbaa !24
  %101 = add nsw i32 %99, %100
  %102 = sext i32 %101 to i64
  %103 = getelementptr inbounds float, ptr %96, i64 %102
  %104 = load float, ptr %103, align 4, !tbaa !59
  %105 = load ptr, ptr %18, align 8, !tbaa !57
  %106 = load i32, ptr %21, align 4, !tbaa !24
  %107 = load i32, ptr %13, align 4, !tbaa !24
  %108 = mul nsw i32 %106, %107
  %109 = load i32, ptr %20, align 4, !tbaa !24
  %110 = add nsw i32 %108, %109
  %111 = sext i32 %110 to i64
  %112 = getelementptr inbounds float, ptr %105, i64 %111
  store float %104, ptr %112, align 4, !tbaa !59
  br label %113

113:                                              ; preds = %95
  %114 = load i32, ptr %21, align 4, !tbaa !24
  %115 = add nsw i32 %114, 1
  store i32 %115, ptr %21, align 4, !tbaa !24
  br label %90, !llvm.loop !99

116:                                              ; preds = %94
  br label %117

117:                                              ; preds = %116
  %118 = load i32, ptr %20, align 4, !tbaa !24
  %119 = add nsw i32 %118, 1
  store i32 %119, ptr %20, align 4, !tbaa !24
  br label %84, !llvm.loop !100

120:                                              ; preds = %88
  call void @llvm.lifetime.end.p0(i64 8, ptr %19) #10
  call void @llvm.lifetime.end.p0(i64 8, ptr %18) #10
  call void @llvm.lifetime.end.p0(i64 4, ptr %17) #10
  call void @llvm.lifetime.end.p0(i64 4, ptr %16) #10
  call void @llvm.lifetime.end.p0(i64 4, ptr %15) #10
  call void @llvm.lifetime.end.p0(i64 4, ptr %14) #10
  call void @llvm.lifetime.end.p0(i64 4, ptr %13) #10
  call void @llvm.lifetime.end.p0(i64 4, ptr %12) #10
  br label %121

121:                                              ; preds = %120
  %122 = load i32, ptr %10, align 4, !tbaa !24
  %123 = add nsw i32 %122, 1
  store i32 %123, ptr %10, align 4, !tbaa !24
  br label %25, !llvm.loop !101

124:                                              ; preds = %31
  store i32 1, ptr %11, align 4
  call void @llvm.lifetime.end.p0(i64 8, ptr %9) #10
  ret i32 0
}