; Function Attrs: nofree norecurse nosync nounwind memory(readwrite, inaccessiblemem: none) uwtable
define internal noundef i32 @copy_horizontal(ptr noundef readonly captures(none) %0, ptr readnone captures(none) %1, i32 noundef %2, i32 noundef %3) #4 {
  %5 = getelementptr inbounds nuw i8, ptr %0, i64 72
  %6 = load ptr, ptr %5, align 8, !tbaa !4
  %7 = getelementptr inbounds nuw i8, ptr %6, i64 16
  %8 = load i32, ptr %7, align 8, !tbaa !48
  %9 = icmp sgt i32 %8, 0
  br i1 %9, label %.lr.ph, label %._crit_edge

.lr.ph:                                           ; preds = %4
  %10 = getelementptr inbounds nuw i8, ptr %6, i64 4280
  %11 = getelementptr inbounds nuw i8, ptr %6, i64 4216
  %12 = getelementptr inbounds nuw i8, ptr %6, i64 4248
  %13 = add nsw i32 %2, 1
  %14 = getelementptr inbounds nuw i8, ptr %6, i64 40
  %15 = getelementptr inbounds nuw i8, ptr %6, i64 4344
  %16 = getelementptr inbounds nuw i8, ptr %6, i64 4376
  %wide.trip.count52 = zext nneg i32 %8 to i64
  br label %17

._crit_edge:                                      ; preds = %._crit_edge40, %4
  ret i32 0

17:                                               ; preds = %.lr.ph, %._crit_edge40
  %indvars.iv49 = phi i64 [ 0, %.lr.ph ], [ %indvars.iv.next50, %._crit_edge40 ]
  %18 = getelementptr inbounds nuw [4 x i64], ptr %10, i64 0, i64 %indvars.iv49
  %19 = load i64, ptr %18, align 8, !tbaa !56
  %20 = trunc i64 %19 to i32
  %21 = mul nsw i32 %2, %20
  %22 = sdiv i32 %21, %3
  %23 = mul nsw i32 %13, %20
  %24 = sdiv i32 %23, %3
  %25 = getelementptr inbounds nuw [4 x i32], ptr %14, i64 0, i64 %indvars.iv49
  %26 = load i32, ptr %25, align 4, !tbaa !20
  %27 = getelementptr inbounds nuw [4 x ptr], ptr %15, i64 0, i64 %indvars.iv49
  %28 = load ptr, ptr %27, align 8, !tbaa !63
  %29 = getelementptr inbounds nuw [4 x ptr], ptr %16, i64 0, i64 %indvars.iv49
  %30 = load ptr, ptr %29, align 8, !tbaa !63
  %31 = icmp slt i32 %22, %24
  %32 = icmp sgt i32 %26, 0
  %or.cond = select i1 %31, i1 %32, i1 false
  br i1 %or.cond, label %.preheader.us.preheader, label %._crit_edge40

.preheader.us.preheader:                          ; preds = %17
  %33 = getelementptr inbounds nuw [4 x i64], ptr %12, i64 0, i64 %indvars.iv49
  %34 = load i64, ptr %33, align 8, !tbaa !56
  %35 = getelementptr inbounds nuw [4 x i64], ptr %11, i64 0, i64 %indvars.iv49
  %36 = load i64, ptr %35, align 8, !tbaa !56
  %sext = shl i64 %36, 32
  %37 = ashr exact i64 %sext, 32
  %38 = sext i32 %22 to i64
  %sext54 = shl i64 %34, 32
  %39 = ashr exact i64 %sext54, 32
  %wide.trip.count47 = sext i32 %24 to i64
  %wide.trip.count = zext nneg i32 %26 to i64
  br label %.preheader.us

.preheader.us:                                    ; preds = %.preheader.us.preheader, %._crit_edge.us
  %indvars.iv44 = phi i64 [ %38, %.preheader.us.preheader ], [ %indvars.iv.next45, %._crit_edge.us ]
  %40 = mul nsw i64 %indvars.iv44, %39
  %invariant.gep = getelementptr float, ptr %30, i64 %40
  %invariant.gep55 = getelementptr float, ptr %28, i64 %indvars.iv44
  br label %41

41:                                               ; preds = %.preheader.us, %41
  %indvars.iv = phi i64 [ 0, %.preheader.us ], [ %indvars.iv.next, %41 ]
  %gep = getelementptr float, ptr %invariant.gep, i64 %indvars.iv
  %42 = load float, ptr %gep, align 4, !tbaa !65
  %43 = mul nsw i64 %indvars.iv, %37
  %gep56 = getelementptr float, ptr %invariant.gep55, i64 %43
  store float %42, ptr %gep56, align 4, !tbaa !65
  %indvars.iv.next = add nuw nsw i64 %indvars.iv, 1
  %exitcond.not = icmp eq i64 %indvars.iv.next, %wide.trip.count
  br i1 %exitcond.not, label %._crit_edge.us, label %41, !llvm.loop !96

._crit_edge.us:                                   ; preds = %41
  %indvars.iv.next45 = add nsw i64 %indvars.iv44, 1
  %exitcond48.not = icmp eq i64 %indvars.iv.next45, %wide.trip.count47
  br i1 %exitcond48.not, label %._crit_edge40, label %.preheader.us, !llvm.loop !97

._crit_edge40:                                    ; preds = %._crit_edge.us, %17
  %indvars.iv.next50 = add nuw nsw i64 %indvars.iv49, 1
  %exitcond53.not = icmp eq i64 %indvars.iv.next50, %wide.trip.count52
  br i1 %exitcond53.not, label %._crit_edge, label %17, !llvm.loop !98
}